target datalayout = "e-m:e-p270:32:32-p271:32:32-p272:64:64-i64:64-i128:128-f80:128-n8:16:32:64-S128"
target triple = "x86_64-pc-linux-gnu"

%"class.std::shared_ptr" = type { %"class.std::__shared_ptr" }
%"class.std::__shared_ptr" = type { ptr, %"class.std::__shared_count" }
%"class.std::__shared_count" = type { ptr }
%"struct.OpenColorIO_v2_5dev::CDLOpData::ChannelParams" = type { [3 x double] }
%"class.OpenColorIO_v2_5dev::CDLTransformImpl" = type { %"class.OpenColorIO_v2_5dev::CDLTransform", %"class.std::__cxx11::basic_string", %"class.OpenColorIO_v2_5dev::CDLOpData" }
%"class.OpenColorIO_v2_5dev::CDLTransform" = type { %"class.OpenColorIO_v2_5dev::Transform" }
%"class.OpenColorIO_v2_5dev::Transform" = type { ptr }
%"class.std::__cxx11::basic_string" = type { %"struct.std::__cxx11::basic_string<char>::_Alloc_hider", i64, %union.anon }
%"struct.std::__cxx11::basic_string<char>::_Alloc_hider" = type { ptr }
%union.anon = type { i64, [8 x i8] }
%"class.OpenColorIO_v2_5dev::CDLOpData" = type { %"class.OpenColorIO_v2_5dev::OpData", i32, %"struct.OpenColorIO_v2_5dev::CDLOpData::ChannelParams", %"struct.OpenColorIO_v2_5dev::CDLOpData::ChannelParams", %"struct.OpenColorIO_v2_5dev::CDLOpData::ChannelParams", double }
%"class.OpenColorIO_v2_5dev::OpData" = type { ptr, %"class.std::mutex", %"class.OpenColorIO_v2_5dev::FormatMetadataImpl" }
%"class.std::mutex" = type { %"class.std::__mutex_base" }
%"class.std::__mutex_base" = type { %union.pthread_mutex_t }
%union.pthread_mutex_t = type { %struct.__pthread_mutex_s }
%struct.__pthread_mutex_s = type { i32, i32, i32, i32, i32, i16, i16, %struct.__pthread_internal_list }
%struct.__pthread_internal_list = type { ptr, ptr }
%"class.OpenColorIO_v2_5dev::FormatMetadataImpl" = type { %"class.OpenColorIO_v2_5dev::FormatMetadata", %"class.std::__cxx11::basic_string", %"class.std::__cxx11::basic_string", %"class.std::vector", %"class.std::vector.3" }
%"class.OpenColorIO_v2_5dev::FormatMetadata" = type { ptr }
%"class.std::vector" = type { %"struct.std::_Vector_base" }
%"struct.std::_Vector_base" = type { %"struct.std::_Vector_base<std::pair<std::__cxx11::basic_string<char>, std::__cxx11::basic_string<char>>, std::allocator<std::pair<std::__cxx11::basic_string<char>, std::__cxx11::basic_string<char>>>>::_Vector_impl" }
%"struct.std::_Vector_base<std::pair<std::__cxx11::basic_string<char>, std::__cxx11::basic_string<char>>, std::allocator<std::pair<std::__cxx11::basic_string<char>, std::__cxx11::basic_string<char>>>>::_Vector_impl" = type { %"struct.std::_Vector_base<std::pair<std::__cxx11::basic_string<char>, std::__cxx11::basic_string<char>>, std::allocator<std::pair<std::__cxx11::basic_string<char>, std::__cxx11::basic_string<char>>>>::_Vector_impl_data" }
%"struct.std::_Vector_base<std::pair<std::__cxx11::basic_string<char>, std::__cxx11::basic_string<char>>, std::allocator<std::pair<std::__cxx11::basic_string<char>, std::__cxx11::basic_string<char>>>>::_Vector_impl_data" = type { ptr, ptr, ptr }
%"class.std::vector.3" = type { %"struct.std::_Vector_base.4" }
%"struct.std::_Vector_base.4" = type { %"struct.std::_Vector_base<OpenColorIO_v2_5dev::FormatMetadataImpl, std::allocator<OpenColorIO_v2_5dev::FormatMetadataImpl>>::_Vector_impl" }
%"struct.std::_Vector_base<OpenColorIO_v2_5dev::FormatMetadataImpl, std::allocator<OpenColorIO_v2_5dev::FormatMetadataImpl>>::_Vector_impl" = type { %"struct.std::_Vector_base<OpenColorIO_v2_5dev::FormatMetadataImpl, std::allocator<OpenColorIO_v2_5dev::FormatMetadataImpl>>::_Vector_impl_data" }
%"struct.std::_Vector_base<OpenColorIO_v2_5dev::FormatMetadataImpl, std::allocator<OpenColorIO_v2_5dev::FormatMetadataImpl>>::_Vector_impl_data" = type { ptr, ptr, ptr }

@_ZTIN19OpenColorIO_v2_5dev12CDLTransformE = linkonce_odr constant { ptr, ptr, ptr } { ptr getelementptr inbounds (ptr, ptr @_ZTVN10__cxxabiv120__si_class_type_infoE, i64 2), ptr @_ZTSN19OpenColorIO_v2_5dev12CDLTransformE, ptr @_ZTIN19OpenColorIO_v2_5dev9TransformE }, comdat, align 8
@_ZTIN19OpenColorIO_v2_5dev16CDLTransformImplE = external constant ptr
@__const._ZN19OpenColorIO_v2_5dev10BuildCDLOpERNS_10OpRcPtrVecERKNS_6ConfigERKNS_12CDLTransformENS_18TransformDirectionE.slope4 = private unnamed_addr constant [4 x double] [double 1.000000e+00, double 1.000000e+00, double 1.000000e+00, double 1.000000e+00], align 16
@__const._ZN19OpenColorIO_v2_5dev10BuildCDLOpERNS_10OpRcPtrVecERKNS_6ConfigERKNS_12CDLTransformENS_18TransformDirectionE.power4 = private unnamed_addr constant [4 x double] [double 1.000000e+00, double 1.000000e+00, double 1.000000e+00, double 1.000000e+00], align 16
@__const._ZN19OpenColorIO_v2_5dev10BuildCDLOpERNS_10OpRcPtrVecERKNS_6ConfigERKNS_12CDLTransformENS_18TransformDirectionE.lumaCoef3 = private unnamed_addr constant [3 x double] [double 1.000000e+00, double 1.000000e+00, double 1.000000e+00], align 16

; Function Attrs: mustprogress nounwind uwtable
define linkonce_odr hidden noundef nonnull align 8 dereferenceable(256) ptr @_ZNK19OpenColorIO_v2_5dev16CDLTransformImpl4dataEv(ptr noundef nonnull align 8 dereferenceable(296) %0) #8 comdat align 2 {
  %2 = alloca ptr, align 8
  store ptr %0, ptr %2, align 8, !tbaa !60
  %3 = load ptr, ptr %2, align 8
  %4 = getelementptr inbounds nuw %"class.OpenColorIO_v2_5dev::CDLTransformImpl", ptr %3, i32 0, i32 2
  ret ptr %4
}

; Function Attrs: mustprogress uwtable
define hidden void @_ZN19OpenColorIO_v2_5dev10BuildCDLOpERNS_10OpRcPtrVecERKNS_6ConfigERKNS_12CDLTransformENS_18TransformDirectionE(ptr noundef nonnull align 8 dereferenceable(144) %0, ptr noundef nonnull align 8 dereferenceable(8) %1, ptr noundef nonnull align 8 dereferenceable(8) %2, i32 noundef %3) #4 personality ptr @__gxx_personality_v0 {
  %5 = alloca ptr, align 8
  %6 = alloca ptr, align 8
  %7 = alloca ptr, align 8
  %8 = alloca i32, align 4
  %9 = alloca i32, align 4
  %10 = alloca [4 x double], align 16
  %11 = alloca [4 x double], align 16
  %12 = alloca [4 x double], align 16
  %13 = alloca [3 x double], align 16
  %14 = alloca double, align 8
  %15 = alloca ptr, align 8
  %16 = alloca %"class.std::shared_ptr", align 8
  %17 = alloca ptr, align 8
  %18 = alloca i32, align 4
  store ptr %0, ptr %5, align 8, !tbaa !3
  store ptr %1, ptr %6, align 8, !tbaa !74
  store ptr %2, ptr %7, align 8, !tbaa !76
  store i32 %3, ptr %8, align 4, !tbaa !14
  %19 = load ptr, ptr %6, align 8, !tbaa !74
  %20 = call noundef i32 @_ZNK19OpenColorIO_v2_5dev6Config15getMajorVersionEv(ptr noundef nonnull align 8 dereferenceable(8) %19)
  %21 = icmp eq i32 %20, 1
  br i1 %21, label %22, label %73

22:                                               ; preds = %4
  call void @llvm.lifetime.start.p0(i64 4, ptr %9) #3
  %23 = load i32, ptr %8, align 4, !tbaa !14
  %24 = load ptr, ptr %7, align 8, !tbaa !76
  %25 = load ptr, ptr %24, align 8, !tbaa !38
  %26 = getelementptr inbounds ptr, ptr %25, i64 1
  %27 = load ptr, ptr %26, align 8
  %28 = call noundef i32 %27(ptr noundef nonnull align 8 dereferenceable(8) %24) #3
  %29 = call noundef i32 @_ZN19OpenColorIO_v2_5dev26CombineTransformDirectionsENS_18TransformDirectionES0_(i32 noundef %23, i32 noundef %28)
  store i32 %29, ptr %9, align 4, !tbaa !14
  call void @llvm.lifetime.start.p0(i64 32, ptr %10) #3
  call void @llvm.memcpy.p0.p0.i64(ptr align 16 %10, ptr align 16 @__const._ZN19OpenColorIO_v2_5dev10BuildCDLOpERNS_10OpRcPtrVecERKNS_6ConfigERKNS_12CDLTransformENS_18TransformDirectionE.slope4, i64 32, i1 false)
  %30 = load ptr, ptr %7, align 8, !tbaa !76
  %31 = getelementptr inbounds [4 x double], ptr %10, i64 0, i64 0
  %32 = load ptr, ptr %30, align 8, !tbaa !38
  %33 = getelementptr inbounds ptr, ptr %32, i64 12
  %34 = load ptr, ptr %33, align 8
  call void %34(ptr noundef nonnull align 8 dereferenceable(8) %30, ptr noundef %31)
  call void @llvm.lifetime.start.p0(i64 32, ptr %11) #3
  call void @llvm.memset.p0.i64(ptr align 16 %11, i8 0, i64 32, i1 false)
  %35 = load ptr, ptr %7, align 8, !tbaa !76
  %36 = getelementptr inbounds [4 x double], ptr %11, i64 0, i64 0
  %37 = load ptr, ptr %35, align 8, !tbaa !38
  %38 = getelementptr inbounds ptr, ptr %37, i64 14
  %39 = load ptr, ptr %38, align 8
  call void %39(ptr noundef nonnull align 8 dereferenceable(8) %35, ptr noundef %36)
  call void @llvm.lifetime.start.p0(i64 32, ptr %12) #3
  call void @llvm.memcpy.p0.p0.i64(ptr align 16 %12, ptr align 16 @__const._ZN19OpenColorIO_v2_5dev10BuildCDLOpERNS_10OpRcPtrVecERKNS_6ConfigERKNS_12CDLTransformENS_18TransformDirectionE.power4, i64 32, i1 false)
  %40 = load ptr, ptr %7, align 8, !tbaa !76
  %41 = getelementptr inbounds [4 x double], ptr %12, i64 0, i64 0
  %42 = load ptr, ptr %40, align 8, !tbaa !38
  %43 = getelementptr inbounds ptr, ptr %42, i64 16
  %44 = load ptr, ptr %43, align 8
  call void %44(ptr noundef nonnull align 8 dereferenceable(8) %40, ptr noundef %41)
  call void @llvm.lifetime.start.p0(i64 24, ptr %13) #3
  call void @llvm.memcpy.p0.p0.i64(ptr align 16 %13, ptr align 16 @__const._ZN19OpenColorIO_v2_5dev10BuildCDLOpERNS_10OpRcPtrVecERKNS_6ConfigERKNS_12CDLTransformENS_18TransformDirectionE.lumaCoef3, i64 24, i1 false)
  %45 = load ptr, ptr %7, align 8, !tbaa !76
  %46 = getelementptr inbounds [3 x double], ptr %13, i64 0, i64 0
  %47 = load ptr, ptr %45, align 8, !tbaa !38
  %48 = getelementptr inbounds ptr, ptr %47, i64 22
  %49 = load ptr, ptr %48, align 8
  call void %49(ptr noundef nonnull align 8 dereferenceable(8) %45, ptr noundef %46)
  call void @llvm.lifetime.start.p0(i64 8, ptr %14) #3
  %50 = load ptr, ptr %7, align 8, !tbaa !76
  %51 = load ptr, ptr %50, align 8, !tbaa !38
  %52 = getelementptr inbounds ptr, ptr %51, i64 20
  %53 = load ptr, ptr %52, align 8
  %54 = call noundef double %53(ptr noundef nonnull align 8 dereferenceable(8) %50)
  store double %54, ptr %14, align 8, !tbaa !12
  %55 = load i32, ptr %9, align 4, !tbaa !14
  switch i32 %55, label %72 [
    i32 0, label %56
    i32 1, label %64
  ]

56:                                               ; preds = %22
  %57 = load ptr, ptr %5, align 8, !tbaa !3
  %58 = getelementptr inbounds [4 x double], ptr %10, i64 0, i64 0
  %59 = getelementptr inbounds [4 x double], ptr %11, i64 0, i64 0
  call void @_ZN19OpenColorIO_v2_5dev19CreateScaleOffsetOpERNS_10OpRcPtrVecEPKdS3_NS_18TransformDirectionE(ptr noundef nonnull align 8 dereferenceable(144) %57, ptr noundef %58, ptr noundef %59, i32 noundef 0)
  %60 = load ptr, ptr %5, align 8, !tbaa !3
  call void @_ZN19OpenColorIO_v2_5dev16CreateExponentOpERNS_10OpRcPtrVecERA4_KdNS_18TransformDirectionE(ptr noundef nonnull align 8 dereferenceable(144) %60, ptr noundef nonnull align 8 dereferenceable(32) %12, i32 noundef 0)
  %61 = load ptr, ptr %5, align 8, !tbaa !3
  %62 = load double, ptr %14, align 8, !tbaa !12
  %63 = getelementptr inbounds [3 x double], ptr %13, i64 0, i64 0
  call void @_ZN19OpenColorIO_v2_5dev18CreateSaturationOpERNS_10OpRcPtrVecEdPKdNS_18TransformDirectionE(ptr noundef nonnull align 8 dereferenceable(144) %61, double noundef %62, ptr noundef %63, i32 noundef 0)
  br label %72

64:                                               ; preds = %22
  %65 = load ptr, ptr %5, align 8, !tbaa !3
  %66 = load double, ptr %14, align 8, !tbaa !12
  %67 = getelementptr inbounds [3 x double], ptr %13, i64 0, i64 0
  call void @_ZN19OpenColorIO_v2_5dev18CreateSaturationOpERNS_10OpRcPtrVecEdPKdNS_18TransformDirectionE(ptr noundef nonnull align 8 dereferenceable(144) %65, double noundef %66, ptr noundef %67, i32 noundef 1)
  %68 = load ptr, ptr %5, align 8, !tbaa !3
  call void @_ZN19OpenColorIO_v2_5dev16CreateExponentOpERNS_10OpRcPtrVecERA4_KdNS_18TransformDirectionE(ptr noundef nonnull align 8 dereferenceable(144) %68, ptr noundef nonnull align 8 dereferenceable(32) %12, i32 noundef 1)
  %69 = load ptr, ptr %5, align 8, !tbaa !3
  %70 = getelementptr inbounds [4 x double], ptr %10, i64 0, i64 0
  %71 = getelementptr inbounds [4 x double], ptr %11, i64 0, i64 0
  call void @_ZN19OpenColorIO_v2_5dev19CreateScaleOffsetOpERNS_10OpRcPtrVecEPKdS3_NS_18TransformDirectionE(ptr noundef nonnull align 8 dereferenceable(144) %69, ptr noundef %70, ptr noundef %71, i32 noundef 1)
  br label %72

72:                                               ; preds = %22, %64, %56
  call void @llvm.lifetime.end.p0(i64 8, ptr %14) #3
  call void @llvm.lifetime.end.p0(i64 24, ptr %13) #3
  call void @llvm.lifetime.end.p0(i64 32, ptr %12) #3
  call void @llvm.lifetime.end.p0(i64 32, ptr %11) #3
  call void @llvm.lifetime.end.p0(i64 32, ptr %10) #3
  call void @llvm.lifetime.end.p0(i64 4, ptr %9) #3
  br label %92

73:                                               ; preds = %4
  call void @llvm.lifetime.start.p0(i64 8, ptr %15) #3
  %74 = load ptr, ptr %7, align 8, !tbaa !76
  %75 = call ptr @__dynamic_cast(ptr %74, ptr @_ZTIN19OpenColorIO_v2_5dev12CDLTransformE, ptr @_ZTIN19OpenColorIO_v2_5dev16CDLTransformImplE, i64 0) #3
  %76 = icmp eq ptr %75, null
  br i1 %76, label %77, label %78

77:                                               ; preds = %73
  call void @__cxa_bad_cast() #23
  unreachable

78:                                               ; preds = %73
  %79 = call noundef nonnull align 8 dereferenceable(256) ptr @_ZNK19OpenColorIO_v2_5dev16CDLTransformImpl4dataEv(ptr noundef nonnull align 8 dereferenceable(296) %75) #3
  store ptr %79, ptr %15, align 8, !tbaa !20
  %80 = load ptr, ptr %15, align 8, !tbaa !20
  %81 = load ptr, ptr %80, align 8, !tbaa !38
  %82 = getelementptr inbounds ptr, ptr %81, i64 2
  %83 = load ptr, ptr %82, align 8
  call void %83(ptr noundef nonnull align 8 dereferenceable(256) %80)
  call void @llvm.lifetime.start.p0(i64 16, ptr %16) #3
  %84 = load ptr, ptr %15, align 8, !tbaa !20
  call void @_ZNK19OpenColorIO_v2_5dev9CDLOpData5cloneEv(ptr dead_on_unwind writable sret(%"class.std::shared_ptr") align 8 %16, ptr noundef nonnull align 8 dereferenceable(256) %84)
  %85 = load ptr, ptr %5, align 8, !tbaa !3
  %86 = load i32, ptr %8, align 4, !tbaa !14
  invoke void @_ZN19OpenColorIO_v2_5dev11CreateCDLOpERNS_10OpRcPtrVecERSt10shared_ptrINS_9CDLOpDataEENS_18TransformDirectionE(ptr noundef nonnull align 8 dereferenceable(144) %85, ptr noundef nonnull align 8 dereferenceable(16) %16, i32 noundef %86)
          to label %87 unwind label %88

87:                                               ; preds = %78
  call void @_ZNSt12__shared_ptrIN19OpenColorIO_v2_5dev9CDLOpDataELN9__gnu_cxx12_Lock_policyE2EED2Ev(ptr noundef nonnull align 8 dereferenceable(16) %16) #3
  call void @llvm.lifetime.end.p0(i64 16, ptr %16) #3
  call void @llvm.lifetime.end.p0(i64 8, ptr %15) #3
  br label %92

88:                                               ; preds = %78
  %89 = landingpad { ptr, i32 }
          cleanup
  %90 = extractvalue { ptr, i32 } %89, 0
  store ptr %90, ptr %17, align 8
  %91 = extractvalue { ptr, i32 } %89, 1
  store i32 %91, ptr %18, align 4
  call void @_ZNSt12__shared_ptrIN19OpenColorIO_v2_5dev9CDLOpDataELN9__gnu_cxx12_Lock_policyE2EED2Ev(ptr noundef nonnull align 8 dereferenceable(16) %16) #3
  call void @llvm.lifetime.end.p0(i64 16, ptr %16) #3
  call void @llvm.lifetime.end.p0(i64 8, ptr %15) #3
  br label %93

92:                                               ; preds = %87, %72
  ret void

93:                                               ; preds = %88
  %94 = load ptr, ptr %17, align 8
  %95 = load i32, ptr %18, align 4
  %96 = insertvalue { ptr, i32 } poison, ptr %94, 0
  %97 = insertvalue { ptr, i32 } %96, i32 %95, 1
  resume { ptr, i32 } %97
}