; Function Attrs: mustprogress uwtable
define hidden void @_ZN19OpenColorIO_v2_5dev10BuildCDLOpERNS_10OpRcPtrVecERKNS_6ConfigERKNS_12CDLTransformENS_18TransformDirectionE(ptr noundef nonnull align 8 dereferenceable(144) %0, ptr noundef nonnull align 8 dereferenceable(8) %1, ptr noundef nonnull align 8 dereferenceable(8) %2, i32 noundef %3) local_unnamed_addr #3 personality ptr @__gxx_personality_v0 {
  %5 = alloca [4 x double], align 16
  %6 = alloca [4 x double], align 16
  %7 = alloca [4 x double], align 16
  %8 = alloca [3 x double], align 16
  %9 = alloca %"class.std::shared_ptr", align 8
  %10 = tail call noundef i32 @_ZNK19OpenColorIO_v2_5dev6Config15getMajorVersionEv(ptr noundef nonnull align 8 dereferenceable(8) %1)
  %11 = icmp eq i32 %10, 1
  br i1 %11, label %12, label %37

12:                                               ; preds = %4
  %13 = load ptr, ptr %2, align 8, !tbaa !15
  %14 = getelementptr inbounds nuw i8, ptr %13, i64 8
  %15 = load ptr, ptr %14, align 8
  %16 = tail call noundef i32 %15(ptr noundef nonnull align 8 dereferenceable(8) %2) #23
  %17 = tail call noundef i32 @_ZN19OpenColorIO_v2_5dev26CombineTransformDirectionsENS_18TransformDirectionES0_(i32 noundef %3, i32 noundef %16)
  call void @llvm.lifetime.start.p0(i64 32, ptr nonnull %5) #23
  call void @llvm.memcpy.p0.p0.i64(ptr noundef nonnull align 16 dereferenceable(32) %5, ptr noundef nonnull align 16 dereferenceable(32) @__const._ZN19OpenColorIO_v2_5dev10BuildCDLOpERNS_10OpRcPtrVecERKNS_6ConfigERKNS_12CDLTransformENS_18TransformDirectionE.power4, i64 32, i1 false)
  %18 = load ptr, ptr %2, align 8, !tbaa !15
  %19 = getelementptr inbounds nuw i8, ptr %18, i64 96
  %20 = load ptr, ptr %19, align 8
  call void %20(ptr noundef nonnull align 8 dereferenceable(8) %2, ptr noundef nonnull %5)
  call void @llvm.lifetime.start.p0(i64 32, ptr nonnull %6) #23
  call void @llvm.memset.p0.i64(ptr noundef nonnull align 16 dereferenceable(32) %6, i8 0, i64 32, i1 false)
  %21 = load ptr, ptr %2, align 8, !tbaa !15
  %22 = getelementptr inbounds nuw i8, ptr %21, i64 112
  %23 = load ptr, ptr %22, align 8
  call void %23(ptr noundef nonnull align 8 dereferenceable(8) %2, ptr noundef nonnull %6)
  call void @llvm.lifetime.start.p0(i64 32, ptr nonnull %7) #23
  call void @llvm.memcpy.p0.p0.i64(ptr noundef nonnull align 16 dereferenceable(32) %7, ptr noundef nonnull align 16 dereferenceable(32) @__const._ZN19OpenColorIO_v2_5dev10BuildCDLOpERNS_10OpRcPtrVecERKNS_6ConfigERKNS_12CDLTransformENS_18TransformDirectionE.power4, i64 32, i1 false)
  %24 = load ptr, ptr %2, align 8, !tbaa !15
  %25 = getelementptr inbounds nuw i8, ptr %24, i64 128
  %26 = load ptr, ptr %25, align 8
  call void %26(ptr noundef nonnull align 8 dereferenceable(8) %2, ptr noundef nonnull %7)
  call void @llvm.lifetime.start.p0(i64 24, ptr nonnull %8) #23
  call void @llvm.memcpy.p0.p0.i64(ptr noundef nonnull align 16 dereferenceable(24) %8, ptr noundef nonnull align 16 dereferenceable(24) @__const._ZN19OpenColorIO_v2_5dev10BuildCDLOpERNS_10OpRcPtrVecERKNS_6ConfigERKNS_12CDLTransformENS_18TransformDirectionE.lumaCoef3, i64 24, i1 false)
  %27 = load ptr, ptr %2, align 8, !tbaa !15
  %28 = getelementptr inbounds nuw i8, ptr %27, i64 176
  %29 = load ptr, ptr %28, align 8
  call void %29(ptr noundef nonnull align 8 dereferenceable(8) %2, ptr noundef nonnull %8)
  %30 = load ptr, ptr %2, align 8, !tbaa !15
  %31 = getelementptr inbounds nuw i8, ptr %30, i64 160
  %32 = load ptr, ptr %31, align 8
  %33 = call noundef double %32(ptr noundef nonnull align 8 dereferenceable(8) %2)
  switch i32 %17, label %36 [
    i32 0, label %34
    i32 1, label %35
  ]

34:                                               ; preds = %12
  call void @_ZN19OpenColorIO_v2_5dev19CreateScaleOffsetOpERNS_10OpRcPtrVecEPKdS3_NS_18TransformDirectionE(ptr noundef nonnull align 8 dereferenceable(144) %0, ptr noundef nonnull %5, ptr noundef nonnull %6, i32 noundef 0)
  call void @_ZN19OpenColorIO_v2_5dev16CreateExponentOpERNS_10OpRcPtrVecERA4_KdNS_18TransformDirectionE(ptr noundef nonnull align 8 dereferenceable(144) %0, ptr noundef nonnull align 8 dereferenceable(32) %7, i32 noundef 0)
  call void @_ZN19OpenColorIO_v2_5dev18CreateSaturationOpERNS_10OpRcPtrVecEdPKdNS_18TransformDirectionE(ptr noundef nonnull align 8 dereferenceable(144) %0, double noundef %33, ptr noundef nonnull %8, i32 noundef 0)
  br label %36

35:                                               ; preds = %12
  call void @_ZN19OpenColorIO_v2_5dev18CreateSaturationOpERNS_10OpRcPtrVecEdPKdNS_18TransformDirectionE(ptr noundef nonnull align 8 dereferenceable(144) %0, double noundef %33, ptr noundef nonnull %8, i32 noundef 1)
  call void @_ZN19OpenColorIO_v2_5dev16CreateExponentOpERNS_10OpRcPtrVecERA4_KdNS_18TransformDirectionE(ptr noundef nonnull align 8 dereferenceable(144) %0, ptr noundef nonnull align 8 dereferenceable(32) %7, i32 noundef 1)
  call void @_ZN19OpenColorIO_v2_5dev19CreateScaleOffsetOpERNS_10OpRcPtrVecEPKdS3_NS_18TransformDirectionE(ptr noundef nonnull align 8 dereferenceable(144) %0, ptr noundef nonnull %5, ptr noundef nonnull %6, i32 noundef 1)
  br label %36

36:                                               ; preds = %35, %34, %12
  call void @llvm.lifetime.end.p0(i64 24, ptr nonnull %8) #23
  call void @llvm.lifetime.end.p0(i64 32, ptr nonnull %7) #23
  call void @llvm.lifetime.end.p0(i64 32, ptr nonnull %6) #23
  call void @llvm.lifetime.end.p0(i64 32, ptr nonnull %5) #23
  br label %72

37:                                               ; preds = %4
  %38 = tail call ptr @__dynamic_cast(ptr nonnull %2, ptr nonnull @_ZTIN19OpenColorIO_v2_5dev12CDLTransformE, ptr nonnull @_ZTIN19OpenColorIO_v2_5dev16CDLTransformImplE, i64 0) #23
  %39 = icmp eq ptr %38, null
  br i1 %39, label %40, label %41

40:                                               ; preds = %37
  tail call void @__cxa_bad_cast() #25
  unreachable

41:                                               ; preds = %37
  %42 = getelementptr inbounds nuw i8, ptr %38, i64 40
  %43 = load ptr, ptr %42, align 8, !tbaa !15
  %44 = getelementptr inbounds nuw i8, ptr %43, i64 16
  %45 = load ptr, ptr %44, align 8
  tail call void %45(ptr noundef nonnull align 8 dereferenceable(256) %42)
  call void @llvm.lifetime.start.p0(i64 16, ptr nonnull %9) #23
  call void @_ZNK19OpenColorIO_v2_5dev9CDLOpData5cloneEv(ptr dead_on_unwind nonnull writable sret(%"class.std::shared_ptr") align 8 %9, ptr noundef nonnull align 8 dereferenceable(256) %42)
  invoke void @_ZN19OpenColorIO_v2_5dev11CreateCDLOpERNS_10OpRcPtrVecERSt10shared_ptrINS_9CDLOpDataEENS_18TransformDirectionE(ptr noundef nonnull align 8 dereferenceable(144) %0, ptr noundef nonnull align 8 dereferenceable(16) %9, i32 noundef %3)
          to label %46 unwind label %70

46:                                               ; preds = %41
  %47 = getelementptr inbounds nuw i8, ptr %9, i64 8
  %48 = load ptr, ptr %47, align 8, !tbaa !23
  %.not.i.i = icmp eq ptr %48, null
  br i1 %.not.i.i, label %_ZNSt12__shared_ptrIN19OpenColorIO_v2_5dev9CDLOpDataELN9__gnu_cxx12_Lock_policyE2EED2Ev.exit, label %49

49:                                               ; preds = %46
  %50 = getelementptr inbounds nuw i8, ptr %48, i64 8
  %51 = load atomic i64, ptr %50 acquire, align 8
  %52 = icmp eq i64 %51, 4294967297
  %53 = trunc i64 %51 to i32
  br i1 %52, label %54, label %62

54:                                               ; preds = %49
  store i32 0, ptr %50, align 8, !tbaa !17
  %55 = getelementptr inbounds nuw i8, ptr %48, i64 12
  store i32 0, ptr %55, align 4, !tbaa !20
  %56 = load ptr, ptr %48, align 8, !tbaa !15
  %57 = getelementptr inbounds nuw i8, ptr %56, i64 16
  %58 = load ptr, ptr %57, align 8
  call void %58(ptr noundef nonnull align 8 dereferenceable(16) %48) #23
  %59 = load ptr, ptr %48, align 8, !tbaa !15
  %60 = getelementptr inbounds nuw i8, ptr %59, i64 24
  %61 = load ptr, ptr %60, align 8
  call void %61(ptr noundef nonnull align 8 dereferenceable(16) %48) #23
  br label %_ZNSt12__shared_ptrIN19OpenColorIO_v2_5dev9CDLOpDataELN9__gnu_cxx12_Lock_policyE2EED2Ev.exit

62:                                               ; preds = %49
  %63 = load i8, ptr @__libc_single_threaded, align 1, !tbaa !24
  %.not.i.i.i = icmp eq i8 %63, 0
  br i1 %.not.i.i.i, label %66, label %64

64:                                               ; preds = %62
  %65 = add nsw i32 %53, -1
  store i32 %65, ptr %50, align 4, !tbaa !25
  br label %_ZN9__gnu_cxx27__exchange_and_add_dispatchEPii.exit.i.i.i

66:                                               ; preds = %62
  %67 = atomicrmw volatile add ptr %50, i32 -1 acq_rel, align 4
  br label %_ZN9__gnu_cxx27__exchange_and_add_dispatchEPii.exit.i.i.i

_ZN9__gnu_cxx27__exchange_and_add_dispatchEPii.exit.i.i.i: ; preds = %66, %64
  %.0.i.i.i.i = phi i32 [ %53, %64 ], [ %67, %66 ]
  %68 = icmp eq i32 %.0.i.i.i.i, 1
  br i1 %68, label %69, label %_ZNSt12__shared_ptrIN19OpenColorIO_v2_5dev9CDLOpDataELN9__gnu_cxx12_Lock_policyE2EED2Ev.exit, !prof !26

69:                                               ; preds = %_ZN9__gnu_cxx27__exchange_and_add_dispatchEPii.exit.i.i.i
  call void @_ZNSt16_Sp_counted_baseILN9__gnu_cxx12_Lock_policyE2EE24_M_release_last_use_coldEv(ptr noundef nonnull align 8 dereferenceable(16) %48) #23
  br label %_ZNSt12__shared_ptrIN19OpenColorIO_v2_5dev9CDLOpDataELN9__gnu_cxx12_Lock_policyE2EED2Ev.exit

_ZNSt12__shared_ptrIN19OpenColorIO_v2_5dev9CDLOpDataELN9__gnu_cxx12_Lock_policyE2EED2Ev.exit: ; preds = %46, %54, %_ZN9__gnu_cxx27__exchange_and_add_dispatchEPii.exit.i.i.i, %69
  call void @llvm.lifetime.end.p0(i64 16, ptr nonnull %9) #23
  br label %72

70:                                               ; preds = %41
  %71 = landingpad { ptr, i32 }
          cleanup
  call void @_ZNSt12__shared_ptrIN19OpenColorIO_v2_5dev9CDLOpDataELN9__gnu_cxx12_Lock_policyE2EED2Ev(ptr noundef nonnull align 8 dereferenceable(16) %9) #23
  call void @llvm.lifetime.end.p0(i64 16, ptr nonnull %9) #23
  resume { ptr, i32 } %71

72:                                               ; preds = %_ZNSt12__shared_ptrIN19OpenColorIO_v2_5dev9CDLOpDataELN9__gnu_cxx12_Lock_policyE2EED2Ev.exit, %36
  ret void
}